target datalayout = "e-m:e-p270:32:32-p271:32:32-p272:64:64-i64:64-i128:128-f80:128-n8:16:32:64-S128"
target triple = "x86_64-pc-linux-gnu"

%struct.slurm_conf_t = type { i64, ptr, i16, ptr, ptr, ptr, ptr, ptr, i16, ptr, ptr, ptr, ptr, ptr, ptr, ptr, i16, ptr, ptr, ptr, ptr, i16, ptr, ptr, ptr, i64, ptr, ptr, ptr, ptr, i16, ptr, ptr, i16, i32, ptr, i32, ptr, i32, i32, ptr, ptr, i64, i64, ptr, i16, i16, ptr, i32, i32, ptr, i32, ptr, i32, i16, i16, i16, ptr, i16, i16, ptr, ptr, i32, i16, i16, ptr, i32, i16, ptr, ptr, ptr, ptr, i16, ptr, ptr, ptr, ptr, i32, ptr, ptr, ptr, ptr, i16, i16, ptr, i32, i32, i32, i16, i16, ptr, ptr, i16, ptr, ptr, i32, i32, i32, i32, i32, i64, i32, i32, i16, ptr, ptr, i32, ptr, ptr, ptr, i16, i32, ptr, ptr, i16, ptr, ptr, i32, i16, ptr, ptr, ptr, ptr, i32, i32, i16, i16, i32, ptr, i16, ptr, i32, i32, i32, i32, i32, i32, ptr, i16, ptr, ptr, i32, i16, ptr, i32, i16, i16, ptr, ptr, ptr, i16, ptr, ptr, ptr, ptr, i16, i16, ptr, i16, ptr, i16, ptr, i16, ptr, i16, ptr, ptr, ptr, ptr, i16, ptr, ptr, ptr, i32, ptr, i32, ptr, ptr, i16, ptr, ptr, i32, i16, ptr, ptr, i16, i16, ptr, i16, ptr, ptr, ptr, i32, ptr, i16, i16, ptr, ptr, ptr, ptr, ptr, ptr, ptr, ptr, i16, i32, i16, ptr, ptr, ptr, ptr, i32, ptr, ptr, ptr, i16, ptr, ptr, ptr, i16, ptr, i16, ptr, i16, i16, ptr }

@slurm_conf = dso_local global %struct.slurm_conf_t zeroinitializer, align 8
@_munge_ctx_create.auth_ttl = internal global i32 0, align 4
@.str.11 = private unnamed_addr constant [28 x i8] c"%s: munge_ctx_create failed\00", align 1
@__func__._munge_ctx_create = private unnamed_addr constant [18 x i8] c"_munge_ctx_create\00", align 1
@.str.12 = private unnamed_addr constant [31 x i8] c"Failed to set MUNGE socket: %s\00", align 1
@.str.13 = private unnamed_addr constant [28 x i8] c"Failed to set MUNGE ttl: %s\00", align 1

; Function Attrs: nounwind uwtable
define internal ptr @_munge_ctx_create() #0 {
  %1 = alloca ptr, align 8
  %2 = alloca ptr, align 8
  %3 = alloca ptr, align 8
  %4 = alloca i32, align 4
  %5 = alloca i32, align 4
  call void @llvm.lifetime.start.p0(i64 8, ptr %2) #5
  call void @llvm.lifetime.start.p0(i64 8, ptr %3) #5
  call void @llvm.lifetime.start.p0(i64 4, ptr %4) #5
  %6 = load i32, ptr @_munge_ctx_create.auth_ttl, align 4
  %7 = icmp ne i32 %6, 0
  br i1 %7, label %10, label %8

8:                                                ; preds = %0
  %9 = call i32 @slurm_get_auth_ttl()
  store i32 %9, ptr @_munge_ctx_create.auth_ttl, align 4
  br label %10

10:                                               ; preds = %8, %0
  %11 = call ptr @munge_ctx_create()
  store ptr %11, ptr %2, align 8
  %12 = icmp eq ptr %11, null
  br i1 %12, label %13, label %15

13:                                               ; preds = %10
  %14 = call i32 (ptr, ...) @slurm_error(ptr noundef @.str.11, ptr noundef @__func__._munge_ctx_create)
  store ptr null, ptr %1, align 8
  store i32 1, ptr %5, align 4
  br label %49

15:                                               ; preds = %10
  %16 = load ptr, ptr getelementptr inbounds nuw (%struct.slurm_conf_t, ptr @slurm_conf, i32 0, i32 18), align 8
  %17 = call ptr @slurm_auth_opts_to_socket(ptr noundef %16)
  store ptr %17, ptr %3, align 8
  %18 = load ptr, ptr %3, align 8
  %19 = icmp ne ptr %18, null
  br i1 %19, label %20, label %32

20:                                               ; preds = %15
  %21 = load ptr, ptr %2, align 8
  %22 = load ptr, ptr %3, align 8
  %23 = call i32 (ptr, i32, ...) @munge_ctx_set(ptr noundef %21, i32 noundef 8, ptr noundef %22)
  store i32 %23, ptr %4, align 4
  call void @slurm_xfree(ptr noundef %3)
  %24 = load i32, ptr %4, align 4
  %25 = icmp ne i32 %24, 0
  br i1 %25, label %26, label %31

26:                                               ; preds = %20
  %27 = load ptr, ptr %2, align 8
  %28 = call ptr @munge_ctx_strerror(ptr noundef %27)
  %29 = call i32 (ptr, ...) @slurm_error(ptr noundef @.str.12, ptr noundef %28)
  %30 = load ptr, ptr %2, align 8
  call void @munge_ctx_destroy(ptr noundef %30)
  store ptr null, ptr %1, align 8
  store i32 1, ptr %5, align 4
  br label %49

31:                                               ; preds = %20
  br label %32

32:                                               ; preds = %31, %15
  %33 = load i32, ptr @_munge_ctx_create.auth_ttl, align 4
  %34 = icmp ne i32 %33, 0
  br i1 %34, label %35, label %47

35:                                               ; preds = %32
  %36 = load ptr, ptr %2, align 8
  %37 = load i32, ptr @_munge_ctx_create.auth_ttl, align 4
  %38 = call i32 (ptr, i32, ...) @munge_ctx_set(ptr noundef %36, i32 noundef 4, i32 noundef %37)
  store i32 %38, ptr %4, align 4
  %39 = load i32, ptr %4, align 4
  %40 = icmp ne i32 %39, 0
  br i1 %40, label %41, label %46

41:                                               ; preds = %35
  %42 = load ptr, ptr %2, align 8
  %43 = call ptr @munge_ctx_strerror(ptr noundef %42)
  %44 = call i32 (ptr, ...) @slurm_error(ptr noundef @.str.13, ptr noundef %43)
  %45 = load ptr, ptr %2, align 8
  call void @munge_ctx_destroy(ptr noundef %45)
  store ptr null, ptr %1, align 8
  store i32 1, ptr %5, align 4
  br label %49

46:                                               ; preds = %35
  br label %47

47:                                               ; preds = %46, %32
  %48 = load ptr, ptr %2, align 8
  store ptr %48, ptr %1, align 8
  store i32 1, ptr %5, align 4
  br label %49

49:                                               ; preds = %47, %41, %26, %13
  call void @llvm.lifetime.end.p0(i64 4, ptr %4) #5
  call void @llvm.lifetime.end.p0(i64 8, ptr %3) #5
  call void @llvm.lifetime.end.p0(i64 8, ptr %2) #5
  %50 = load ptr, ptr %1, align 8
  ret ptr %50
}