; Function Attrs: nounwind uwtable
define internal fastcc ptr @_munge_ctx_create() unnamed_addr #0 {
  %1 = alloca ptr, align 8
  call void @llvm.lifetime.start.p0(i64 8, ptr nonnull %1) #7
  %2 = load i32, ptr @_munge_ctx_create.auth_ttl, align 4
  %.not = icmp eq i32 %2, 0
  br i1 %.not, label %3, label %5

3:                                                ; preds = %0
  %4 = tail call i32 @slurm_get_auth_ttl() #7
  store i32 %4, ptr @_munge_ctx_create.auth_ttl, align 4
  br label %5

5:                                                ; preds = %3, %0
  %6 = tail call ptr @munge_ctx_create() #7
  %7 = icmp eq ptr %6, null
  br i1 %7, label %8, label %10

8:                                                ; preds = %5
  %9 = tail call i32 (ptr, ...) @slurm_error(ptr noundef nonnull @.str.11, ptr noundef nonnull @__func__._munge_ctx_create) #7
  br label %25

10:                                               ; preds = %5
  %11 = load ptr, ptr getelementptr inbounds nuw (i8, ptr @slurm_conf, i64 144), align 8
  %12 = tail call ptr @slurm_auth_opts_to_socket(ptr noundef %11) #7
  store ptr %12, ptr %1, align 8
  %.not12 = icmp eq ptr %12, null
  br i1 %.not12, label %18, label %13

13:                                               ; preds = %10
  %14 = tail call i32 (ptr, i32, ...) @munge_ctx_set(ptr noundef nonnull %6, i32 noundef 8, ptr noundef nonnull %12) #7
  call void @slurm_xfree(ptr noundef nonnull %1) #7
  %.not13 = icmp eq i32 %14, 0
  br i1 %.not13, label %18, label %15

15:                                               ; preds = %13
  %16 = call ptr @munge_ctx_strerror(ptr noundef nonnull %6) #7
  %17 = call i32 (ptr, ...) @slurm_error(ptr noundef nonnull @.str.12, ptr noundef %16) #7
  call void @munge_ctx_destroy(ptr noundef nonnull %6) #7
  br label %25

18:                                               ; preds = %13, %10
  %19 = load i32, ptr @_munge_ctx_create.auth_ttl, align 4
  %.not14 = icmp eq i32 %19, 0
  br i1 %.not14, label %25, label %20

20:                                               ; preds = %18
  %21 = call i32 (ptr, i32, ...) @munge_ctx_set(ptr noundef nonnull %6, i32 noundef 4, i32 noundef %19) #7
  %.not15 = icmp eq i32 %21, 0
  br i1 %.not15, label %25, label %22

22:                                               ; preds = %20
  %23 = call ptr @munge_ctx_strerror(ptr noundef nonnull %6) #7
  %24 = call i32 (ptr, ...) @slurm_error(ptr noundef nonnull @.str.13, ptr noundef %23) #7
  call void @munge_ctx_destroy(ptr noundef nonnull %6) #7
  br label %25

25:                                               ; preds = %18, %20, %22, %15, %8
  %.0 = phi ptr [ null, %8 ], [ null, %15 ], [ null, %22 ], [ %6, %20 ], [ %6, %18 ]
  call void @llvm.lifetime.end.p0(i64 8, ptr nonnull %1) #7
  ret ptr %.0
}